; Function Attrs: mustprogress uwtable
define internal fastcc void @_ZN9benchmark12_GLOBAL__N_18PrintImpIRA43_KcJRNSt7__cxx1112basic_stringIcSt11char_traitsIcESaIcEEEEEEvRSoOT_DpOT0_(ptr noundef nonnull readonly align 8 captures(none) dereferenceable(32) %0) unnamed_addr #3 {
  %2 = alloca i8, align 1
  %3 = tail call noundef nonnull align 8 dereferenceable(8) ptr @_ZSt16__ostream_insertIcSt11char_traitsIcEERSt13basic_ostreamIT_T0_ES6_PKS3_l(ptr noundef nonnull align 8 dereferenceable(8) @_ZSt4cerr, ptr noundef nonnull @.str.31, i64 noundef 42)
  %.val = load ptr, ptr %0, align 8, !tbaa !33
  %4 = getelementptr inbounds nuw i8, ptr %0, i64 8
  %.val4 = load i64, ptr %4, align 8, !tbaa !29
  %5 = tail call noundef nonnull align 8 dereferenceable(8) ptr @_ZSt16__ostream_insertIcSt11char_traitsIcEERSt13basic_ostreamIT_T0_ES6_PKS3_l(ptr noundef nonnull align 8 dereferenceable(8) @_ZSt4cerr, ptr noundef %.val, i64 noundef %.val4)
  call void @llvm.lifetime.start.p0(i64 1, ptr nonnull %2)
  store i8 10, ptr %2, align 1, !tbaa !32
  %6 = load ptr, ptr @_ZSt4cerr, align 8, !tbaa !38
  %7 = getelementptr i8, ptr %6, i64 -24
  %8 = load i64, ptr %7, align 8
  %9 = getelementptr inbounds i8, ptr @_ZSt4cerr, i64 %8
  %10 = getelementptr inbounds nuw i8, ptr %9, i64 16
  %11 = load i64, ptr %10, align 8, !tbaa !115
  %.not.i.i.i = icmp eq i64 %11, 0
  br i1 %.not.i.i.i, label %14, label %12

12:                                               ; preds = %1
  %13 = call noundef nonnull align 8 dereferenceable(8) ptr @_ZSt16__ostream_insertIcSt11char_traitsIcEERSt13basic_ostreamIT_T0_ES6_PKS3_l(ptr noundef nonnull align 8 dereferenceable(8) @_ZSt4cerr, ptr noundef nonnull %2, i64 noundef 1)
  br label %_ZN9benchmark12_GLOBAL__N_18PrintImpIRNSt7__cxx1112basic_stringIcSt11char_traitsIcESaIcEEEJEEEvRSoOT_DpOT0_.exit

14:                                               ; preds = %1
  %15 = tail call noundef nonnull align 8 dereferenceable(8) ptr @_ZNSo3putEc(ptr noundef nonnull align 8 dereferenceable(8) @_ZSt4cerr, i8 noundef signext 10)
  br label %_ZN9benchmark12_GLOBAL__N_18PrintImpIRNSt7__cxx1112basic_stringIcSt11char_traitsIcESaIcEEEJEEEvRSoOT_DpOT0_.exit

_ZN9benchmark12_GLOBAL__N_18PrintImpIRNSt7__cxx1112basic_stringIcSt11char_traitsIcESaIcEEEJEEEvRSoOT_DpOT0_.exit: ; preds = %12, %14
  call void @llvm.lifetime.end.p0(i64 1, ptr nonnull %2)
  ret void
}